target datalayout = "e-m:e-p270:32:32-p271:32:32-p272:64:64-i64:64-i128:128-f80:128-n8:16:32:64-S128"
target triple = "x86_64-pc-linux-gnu"

%"class.boost::json::storage_ptr" = type { i64 }
%"class.boost::json::detail::stack" = type { %"class.boost::json::storage_ptr", i64, i64, ptr, ptr, ptr }
%"struct.boost::json::serialize_options" = type { i8 }
%"class.boost::json::detail::const_stream" = type { ptr, ptr }
%"class.boost::json::detail::stream" = type { ptr, ptr }
%"struct.boost::json::detail::writer" = type <{ %"class.boost::json::detail::stack", %"struct.boost::json::serialize_options", [7 x i8], %"class.boost::json::detail::const_stream", ptr, [28 x i8], [4 x i8] }>

@.str.125 = private unnamed_addr constant [5 x i8] c"true\00", align 1

; Function Attrs: mustprogress uwtable
define linkonce_odr hidden void @_ZN5boost4json6detail5stack4pushIRNS1_6writer5stateEEEvOT_(ptr noundef nonnull align 8 dereferenceable(48) %0, ptr noundef nonnull align 1 dereferenceable(1) %1) #5 comdat align 2 {
  %3 = alloca ptr, align 8
  %4 = alloca ptr, align 8
  store ptr %0, ptr %3, align 8, !tbaa !3
  store ptr %1, ptr %4, align 8, !tbaa !3
  %5 = load ptr, ptr %3, align 8
  %6 = load ptr, ptr %4, align 8, !tbaa !3
  call void @_ZN5boost4json6detail5stack4pushINS1_6writer5stateEEEvRKT_St17integral_constantIbLb1EE(ptr noundef nonnull align 8 dereferenceable(48) %5, ptr noundef nonnull align 1 dereferenceable(1) %6)
  ret void
}

; Function Attrs: inlinehint mustprogress uwtable
define linkonce_odr hidden noundef zeroext i1 @_ZN5boost4json6detail6writer7suspendENS2_5stateE(ptr noundef nonnull align 8 dereferenceable(108) %0, i8 noundef signext %1) #0 comdat align 2 {
  %3 = alloca ptr, align 8
  %4 = alloca i8, align 1
  store ptr %0, ptr %3, align 8, !tbaa !3
  store i8 %1, ptr %4, align 1, !tbaa !219
  %5 = load ptr, ptr %3, align 8
  %6 = getelementptr inbounds nuw %"struct.boost::json::detail::writer", ptr %5, i32 0, i32 0
  call void @_ZN5boost4json6detail5stack4pushIRNS1_6writer5stateEEEvOT_(ptr noundef nonnull align 8 dereferenceable(48) %6, ptr noundef nonnull align 1 dereferenceable(1) %4)
  ret i1 false
}

; Function Attrs: mustprogress nounwind uwtable
define linkonce_odr hidden void @_ZN5boost4json6detail12const_streamC2EPKcm(ptr noundef nonnull align 8 dereferenceable(16) %0, ptr noundef %1, i64 noundef %2) unnamed_addr #2 comdat align 2 {
  %4 = alloca ptr, align 8
  %5 = alloca ptr, align 8
  %6 = alloca i64, align 8
  store ptr %0, ptr %4, align 8, !tbaa !3
  store ptr %1, ptr %5, align 8, !tbaa !3
  store i64 %2, ptr %6, align 8, !tbaa !16
  %7 = load ptr, ptr %4, align 8
  %8 = getelementptr inbounds nuw %"class.boost::json::detail::const_stream", ptr %7, i32 0, i32 0
  %9 = load ptr, ptr %5, align 8, !tbaa !3
  store ptr %9, ptr %8, align 8, !tbaa !225
  %10 = getelementptr inbounds nuw %"class.boost::json::detail::const_stream", ptr %7, i32 0, i32 1
  %11 = load ptr, ptr %5, align 8, !tbaa !3
  %12 = load i64, ptr %6, align 8, !tbaa !16
  %13 = getelementptr inbounds nuw i8, ptr %11, i64 %12
  store ptr %13, ptr %10, align 8, !tbaa !226
  ret void
}

; Function Attrs: mustprogress nounwind uwtable
define linkonce_odr hidden void @_ZN5boost4json6detail6stream6appendEPKcm(ptr noundef nonnull align 8 dereferenceable(16) %0, ptr noundef %1, i64 noundef %2) #2 comdat align 2 {
  %4 = alloca ptr, align 8
  %5 = alloca ptr, align 8
  %6 = alloca i64, align 8
  store ptr %0, ptr %4, align 8, !tbaa !3
  store ptr %1, ptr %5, align 8, !tbaa !3
  store i64 %2, ptr %6, align 8, !tbaa !16
  %7 = load ptr, ptr %4, align 8
  %8 = getelementptr inbounds nuw %"class.boost::json::detail::stream", ptr %7, i32 0, i32 0
  %9 = load ptr, ptr %8, align 8, !tbaa !227
  %10 = load ptr, ptr %5, align 8, !tbaa !3
  %11 = load i64, ptr %6, align 8, !tbaa !16
  call void @llvm.memcpy.p0.p0.i64(ptr align 1 %9, ptr align 1 %10, i64 %11, i1 false)
  %12 = load i64, ptr %6, align 8, !tbaa !16
  %13 = getelementptr inbounds nuw %"class.boost::json::detail::stream", ptr %7, i32 0, i32 0
  %14 = load ptr, ptr %13, align 8, !tbaa !227
  %15 = getelementptr inbounds nuw i8, ptr %14, i64 %12
  store ptr %15, ptr %13, align 8, !tbaa !227
  ret void
}

; Function Attrs: mustprogress nounwind uwtable
define linkonce_odr hidden noundef i64 @_ZNK5boost4json6detail6stream6remainEv(ptr noundef nonnull align 8 dereferenceable(16) %0) #2 comdat align 2 {
  %2 = alloca ptr, align 8
  store ptr %0, ptr %2, align 8, !tbaa !3
  %3 = load ptr, ptr %2, align 8
  %4 = getelementptr inbounds nuw %"class.boost::json::detail::stream", ptr %3, i32 0, i32 1
  %5 = load ptr, ptr %4, align 8, !tbaa !229
  %6 = getelementptr inbounds nuw %"class.boost::json::detail::stream", ptr %3, i32 0, i32 0
  %7 = load ptr, ptr %6, align 8, !tbaa !227
  %8 = ptrtoint ptr %5 to i64
  %9 = ptrtoint ptr %7 to i64
  %10 = sub i64 %8, %9
  ret i64 %10
}

; Function Attrs: mustprogress uwtable
define linkonce_odr hidden noundef zeroext i1 @_ZN5boost4json6detail13write_literalILNS1_8literalsE1EEEbRNS1_6writerERNS1_6streamE(ptr noundef nonnull align 8 dereferenceable(108) %0, ptr noundef nonnull align 8 dereferenceable(16) %1) #5 comdat {
  %3 = alloca i1, align 1
  %4 = alloca ptr, align 8
  %5 = alloca ptr, align 8
  %6 = alloca i64, align 8
  %7 = alloca ptr, align 8
  %8 = alloca i64, align 8
  %9 = alloca i64, align 8
  %10 = alloca i32, align 4
  %11 = alloca %"class.boost::json::detail::const_stream", align 8
  store ptr %0, ptr %4, align 8, !tbaa !3
  store ptr %1, ptr %5, align 8, !tbaa !3
  call void @llvm.lifetime.start.p0(i64 8, ptr %6) #10
  store i64 1, ptr %6, align 8, !tbaa !16
  call void @llvm.lifetime.start.p0(i64 8, ptr %7) #10
  store ptr @.str.125, ptr %7, align 8, !tbaa !3
  call void @llvm.lifetime.start.p0(i64 8, ptr %8) #10
  store i64 4, ptr %8, align 8, !tbaa !16
  call void @llvm.lifetime.start.p0(i64 8, ptr %9) #10
  %12 = load ptr, ptr %5, align 8, !tbaa !3
  %13 = call noundef i64 @_ZNK5boost4json6detail6stream6remainEv(ptr noundef nonnull align 8 dereferenceable(16) %12) #10
  store i64 %13, ptr %9, align 8, !tbaa !16
  %14 = load i64, ptr %9, align 8, !tbaa !16
  %15 = icmp uge i64 %14, 4
  %16 = xor i1 %15, true
  %17 = xor i1 %16, true
  %18 = zext i1 %17 to i64
  %19 = call i64 @llvm.expect.i64(i64 %18, i64 1)
  %20 = icmp ne i64 %19, 0
  br i1 %20, label %21, label %23

21:                                               ; preds = %2
  %22 = load ptr, ptr %5, align 8, !tbaa !3
  call void @_ZN5boost4json6detail6stream6appendEPKcm(ptr noundef nonnull align 8 dereferenceable(16) %22, ptr noundef @.str.125, i64 noundef 4) #10
  store i1 true, ptr %3, align 1
  store i32 1, ptr %10, align 4
  br label %34

23:                                               ; preds = %2
  %24 = load ptr, ptr %5, align 8, !tbaa !3
  %25 = load i64, ptr %9, align 8, !tbaa !16
  call void @_ZN5boost4json6detail6stream6appendEPKcm(ptr noundef nonnull align 8 dereferenceable(16) %24, ptr noundef @.str.125, i64 noundef %25) #10
  call void @llvm.lifetime.start.p0(i64 16, ptr %11) #10
  %26 = load i64, ptr %9, align 8, !tbaa !16
  %27 = getelementptr inbounds nuw i8, ptr @.str.125, i64 %26
  %28 = load i64, ptr %9, align 8, !tbaa !16
  %29 = sub i64 4, %28
  call void @_ZN5boost4json6detail12const_streamC2EPKcm(ptr noundef nonnull align 8 dereferenceable(16) %11, ptr noundef %27, i64 noundef %29) #10
  %30 = load ptr, ptr %4, align 8, !tbaa !3
  %31 = getelementptr inbounds nuw %"struct.boost::json::detail::writer", ptr %30, i32 0, i32 3
  call void @llvm.memcpy.p0.p0.i64(ptr align 8 %31, ptr align 8 %11, i64 16, i1 false), !tbaa.struct !178
  call void @llvm.lifetime.end.p0(i64 16, ptr %11) #10
  %32 = load ptr, ptr %4, align 8, !tbaa !3
  %33 = call noundef zeroext i1 @_ZN5boost4json6detail6writer7suspendENS2_5stateE(ptr noundef nonnull align 8 dereferenceable(108) %32, i8 noundef signext 9)
  store i1 %33, ptr %3, align 1
  store i32 1, ptr %10, align 4
  br label %34

34:                                               ; preds = %23, %21
  call void @llvm.lifetime.end.p0(i64 8, ptr %9) #10
  call void @llvm.lifetime.end.p0(i64 8, ptr %8) #10
  call void @llvm.lifetime.end.p0(i64 8, ptr %7) #10
  call void @llvm.lifetime.end.p0(i64 8, ptr %6) #10
  %35 = load i1, ptr %3, align 1
  ret i1 %35
}

; Function Attrs: mustprogress uwtable
define noundef zeroext i1 @_ZN5boost4json6detail10write_trueERNS1_6writerERNS1_6streamE(ptr noundef nonnull align 8 dereferenceable(108) %0, ptr noundef nonnull align 8 dereferenceable(16) %1) #5 {
  %3 = alloca ptr, align 8
  %4 = alloca ptr, align 8
  store ptr %0, ptr %3, align 8, !tbaa !3
  store ptr %1, ptr %4, align 8, !tbaa !3
  %5 = load ptr, ptr %3, align 8, !tbaa !3
  %6 = load ptr, ptr %4, align 8, !tbaa !3
  %7 = call noundef zeroext i1 @_ZN5boost4json6detail13write_literalILNS1_8literalsE1EEEbRNS1_6writerERNS1_6streamE(ptr noundef nonnull align 8 dereferenceable(108) %5, ptr noundef nonnull align 8 dereferenceable(16) %6)
  ret i1 %7
}